target datalayout = "e-m:e-p270:32:32-p271:32:32-p272:64:64-i64:64-i128:128-f80:128-n8:16:32:64-S128"
target triple = "x86_64-pc-linux-gnu"

%struct._object = type { %union.anon, ptr }
%union.anon = type { i64 }
%struct.PyVarObject = type { %struct._object, i64 }
%struct.PyListObject = type { %struct.PyVarObject, ptr, i64 }

; Function Attrs: nounwind uwtable
define internal void @ensure_shared_on_resize(ptr noundef %0) #0 {
  %2 = alloca ptr, align 8
  store ptr %0, ptr %2, align 8, !tbaa !27
  ret void
}

; Function Attrs: inlinehint nounwind uwtable
define internal i64 @Py_SIZE(ptr noundef %0) #2 {
  %2 = alloca ptr, align 8
  store ptr %0, ptr %2, align 8, !tbaa !36
  %3 = load ptr, ptr %2, align 8, !tbaa !36
  %4 = getelementptr inbounds nuw %struct.PyVarObject, ptr %3, i32 0, i32 1
  %5 = load i64, ptr %4, align 8, !tbaa !38
  ret i64 %5
}

; Function Attrs: inlinehint nounwind uwtable
define internal void @Py_SET_SIZE(ptr noundef %0, i64 noundef %1) #2 {
  %3 = alloca ptr, align 8
  %4 = alloca i64, align 8
  store ptr %0, ptr %3, align 8, !tbaa !27
  store i64 %1, ptr %4, align 8, !tbaa !26
  %5 = load i64, ptr %4, align 8, !tbaa !26
  %6 = load ptr, ptr %3, align 8, !tbaa !27
  %7 = getelementptr inbounds nuw %struct.PyVarObject, ptr %6, i32 0, i32 1
  store i64 %5, ptr %7, align 8, !tbaa !38
  ret void
}

; Function Attrs: nounwind uwtable
define internal i32 @list_resize(ptr noundef %0, i64 noundef %1) #0 {
  %3 = alloca i32, align 4
  %4 = alloca ptr, align 8
  %5 = alloca i64, align 8
  %6 = alloca i64, align 8
  %7 = alloca i64, align 8
  %8 = alloca i64, align 8
  %9 = alloca i32, align 4
  %10 = alloca ptr, align 8
  store ptr %0, ptr %4, align 8, !tbaa !27
  store i64 %1, ptr %5, align 8, !tbaa !26
  call void @llvm.lifetime.start.p0(i64 8, ptr %6) #8
  call void @llvm.lifetime.start.p0(i64 8, ptr %7) #8
  call void @llvm.lifetime.start.p0(i64 8, ptr %8) #8
  %11 = load ptr, ptr %4, align 8, !tbaa !27
  %12 = getelementptr inbounds nuw %struct.PyListObject, ptr %11, i32 0, i32 2
  %13 = load i64, ptr %12, align 8, !tbaa !33
  store i64 %13, ptr %8, align 8, !tbaa !26
  %14 = load i64, ptr %8, align 8, !tbaa !26
  %15 = load i64, ptr %5, align 8, !tbaa !26
  %16 = icmp sge i64 %14, %15
  br i1 %16, label %17, label %25

17:                                               ; preds = %2
  %18 = load i64, ptr %5, align 8, !tbaa !26
  %19 = load i64, ptr %8, align 8, !tbaa !26
  %20 = ashr i64 %19, 1
  %21 = icmp sge i64 %18, %20
  br i1 %21, label %22, label %25

22:                                               ; preds = %17
  %23 = load ptr, ptr %4, align 8, !tbaa !27
  %24 = load i64, ptr %5, align 8, !tbaa !26
  call void @Py_SET_SIZE(ptr noundef %23, i64 noundef %24)
  store i32 0, ptr %3, align 4
  store i32 1, ptr %9, align 4
  br label %76

25:                                               ; preds = %17, %2
  %26 = load i64, ptr %5, align 8, !tbaa !26
  %27 = load i64, ptr %5, align 8, !tbaa !26
  %28 = ashr i64 %27, 3
  %29 = add i64 %26, %28
  %30 = add i64 %29, 6
  %31 = and i64 %30, -4
  store i64 %31, ptr %6, align 8, !tbaa !26
  %32 = load i64, ptr %5, align 8, !tbaa !26
  %33 = load ptr, ptr %4, align 8, !tbaa !27
  %34 = call i64 @Py_SIZE(ptr noundef %33)
  %35 = sub i64 %32, %34
  %36 = load i64, ptr %6, align 8, !tbaa !26
  %37 = load i64, ptr %5, align 8, !tbaa !26
  %38 = sub i64 %36, %37
  %39 = icmp sgt i64 %35, %38
  br i1 %39, label %40, label %44

40:                                               ; preds = %25
  %41 = load i64, ptr %5, align 8, !tbaa !26
  %42 = add i64 %41, 3
  %43 = and i64 %42, -4
  store i64 %43, ptr %6, align 8, !tbaa !26
  br label %44

44:                                               ; preds = %40, %25
  %45 = load i64, ptr %5, align 8, !tbaa !26
  %46 = icmp eq i64 %45, 0
  br i1 %46, label %47, label %48

47:                                               ; preds = %44
  store i64 0, ptr %6, align 8, !tbaa !26
  br label %48

48:                                               ; preds = %47, %44
  %49 = load ptr, ptr %4, align 8, !tbaa !27
  call void @ensure_shared_on_resize(ptr noundef %49)
  call void @llvm.lifetime.start.p0(i64 8, ptr %10) #8
  %50 = load i64, ptr %6, align 8, !tbaa !26
  %51 = icmp ule i64 %50, 1152921504606846975
  br i1 %51, label %52, label %60

52:                                               ; preds = %48
  %53 = load i64, ptr %6, align 8, !tbaa !26
  %54 = mul i64 %53, 8
  store i64 %54, ptr %7, align 8, !tbaa !26
  %55 = load ptr, ptr %4, align 8, !tbaa !27
  %56 = getelementptr inbounds nuw %struct.PyListObject, ptr %55, i32 0, i32 1
  %57 = load ptr, ptr %56, align 8, !tbaa !28
  %58 = load i64, ptr %7, align 8, !tbaa !26
  %59 = call ptr @PyMem_Realloc(ptr noundef %57, i64 noundef %58)
  store ptr %59, ptr %10, align 8, !tbaa !119
  br label %61

60:                                               ; preds = %48
  store ptr null, ptr %10, align 8, !tbaa !119
  br label %61

61:                                               ; preds = %60, %52
  %62 = load ptr, ptr %10, align 8, !tbaa !119
  %63 = icmp eq ptr %62, null
  br i1 %63, label %64, label %66

64:                                               ; preds = %61
  %65 = call ptr @PyErr_NoMemory()
  store i32 -1, ptr %3, align 4
  store i32 1, ptr %9, align 4
  br label %75

66:                                               ; preds = %61
  %67 = load ptr, ptr %10, align 8, !tbaa !119
  %68 = load ptr, ptr %4, align 8, !tbaa !27
  %69 = getelementptr inbounds nuw %struct.PyListObject, ptr %68, i32 0, i32 1
  store ptr %67, ptr %69, align 8, !tbaa !28
  %70 = load ptr, ptr %4, align 8, !tbaa !27
  %71 = load i64, ptr %5, align 8, !tbaa !26
  call void @Py_SET_SIZE(ptr noundef %70, i64 noundef %71)
  %72 = load i64, ptr %6, align 8, !tbaa !26
  %73 = load ptr, ptr %4, align 8, !tbaa !27
  %74 = getelementptr inbounds nuw %struct.PyListObject, ptr %73, i32 0, i32 2
  store i64 %72, ptr %74, align 8, !tbaa !33
  store i32 0, ptr %3, align 4
  store i32 1, ptr %9, align 4
  br label %75

75:                                               ; preds = %66, %64
  call void @llvm.lifetime.end.p0(i64 8, ptr %10) #8
  br label %76

76:                                               ; preds = %75, %22
  call void @llvm.lifetime.end.p0(i64 8, ptr %8) #8
  call void @llvm.lifetime.end.p0(i64 8, ptr %7) #8
  call void @llvm.lifetime.end.p0(i64 8, ptr %6) #8
  %77 = load i32, ptr %3, align 4
  ret i32 %77
}