; Function Attrs: nounwind uwtable
define internal fastcc range(i32 -1, 1) i32 @list_resize(ptr noundef captures(none) %0, i64 noundef %1) unnamed_addr #0 {
  %3 = getelementptr inbounds nuw i8, ptr %0, i64 32
  %4 = load i64, ptr %3, align 8, !tbaa !34
  %.not = icmp slt i64 %4, %1
  %5 = ashr i64 %4, 1
  %.not32 = icmp slt i64 %1, %5
  %or.cond = or i1 %.not, %.not32
  br i1 %or.cond, label %8, label %6

6:                                                ; preds = %2
  %7 = getelementptr inbounds nuw i8, ptr %0, i64 16
  store i64 %1, ptr %7, align 8, !tbaa !33
  br label %29

8:                                                ; preds = %2
  %9 = ashr i64 %1, 3
  %10 = add i64 %1, 6
  %11 = add i64 %10, %9
  %12 = and i64 %11, -4
  %13 = getelementptr i8, ptr %0, i64 16
  %.val = load i64, ptr %13, align 8, !tbaa !33
  %14 = sub i64 %1, %.val
  %15 = sub i64 %12, %1
  %16 = icmp sgt i64 %14, %15
  %17 = add i64 %1, 3
  %18 = and i64 %17, -4
  %.028 = select i1 %16, i64 %18, i64 %12
  %19 = icmp eq i64 %1, 0
  %.129 = select i1 %19, i64 0, i64 %.028
  %20 = icmp ult i64 %.129, 1152921504606846976
  br i1 %20, label %21, label %.thread

21:                                               ; preds = %8
  %22 = shl nuw nsw i64 %.129, 3
  %23 = getelementptr inbounds nuw i8, ptr %0, i64 24
  %24 = load ptr, ptr %23, align 8, !tbaa !27
  %25 = tail call ptr @PyMem_Realloc(ptr noundef %24, i64 noundef %22) #12
  %26 = icmp eq ptr %25, null
  br i1 %26, label %.thread, label %28

.thread:                                          ; preds = %8, %21
  %27 = tail call ptr @PyErr_NoMemory() #12
  br label %29

28:                                               ; preds = %21
  store ptr %25, ptr %23, align 8, !tbaa !27
  store i64 %1, ptr %13, align 8, !tbaa !33
  store i64 %.129, ptr %3, align 8, !tbaa !34
  br label %29

29:                                               ; preds = %.thread, %28, %6
  %.027 = phi i32 [ 0, %6 ], [ -1, %.thread ], [ 0, %28 ]
  ret i32 %.027
}